; ModuleID = '55/846.c'
source_filename = "55/846.c"
target datalayout = "e-m:e-p270:32:32-p271:32:32-p272:64:64-i64:64-f80:128-n8:16:32:64-S128"
target triple = "x86_64-pc-linux-gnu"

@.str = private unnamed_addr constant [9 x i8] c"%d %s %d\00", align 1
@.str.1 = private unnamed_addr constant [3 x i8] c"0\0A\00", align 1
@.str.2 = private unnamed_addr constant [3 x i8] c"%s\00", align 1

; Function Attrs: noinline nounwind uwtable
define dso_local i32 @main() #0 {
  %1 = alloca i32, align 4
  %2 = alloca i32, align 4
  %3 = alloca i32, align 4
  %4 = alloca i32, align 4
  %5 = alloca i32, align 4
  %6 = alloca i32, align 4
  %7 = alloca i32, align 4
  %8 = alloca i32, align 4
  %9 = alloca i32, align 4
  %10 = alloca [40000 x i8], align 16
  %11 = alloca [40000 x i32], align 16
  %12 = alloca [40000 x i8], align 16
  store i32 0, i32* %1, align 4
  %13 = getelementptr inbounds [40000 x i8], [40000 x i8]* %10, i64 0, i64 0
  %14 = call i32 (i8*, ...) @__isoc99_scanf(i8* getelementptr inbounds ([9 x i8], [9 x i8]* @.str, i64 0, i64 0), i32* %2, i8* %13, i32* %3)
  %15 = getelementptr inbounds [40000 x i8], [40000 x i8]* %10, i64 0, i64 0
  %16 = call i64 @strlen(i8* %15) #3
  %17 = trunc i64 %16 to i32
  store i32 %17, i32* %7, align 4
  %18 = getelementptr inbounds [40000 x i8], [40000 x i8]* %10, i64 0, i64 0
  %19 = load i8, i8* %18, align 16
  %20 = sext i8 %19 to i32
  %21 = icmp eq i32 %20, 48
  br i1 %21, label %22, label %24

22:                                               ; preds = %0
  %23 = call i32 (i8*, ...) @printf(i8* getelementptr inbounds ([3 x i8], [3 x i8]* @.str.1, i64 0, i64 0))
  br label %160

24:                                               ; preds = %0
  store i32 0, i32* %4, align 4
  br label %25

25:                                               ; preds = %56, %24
  %26 = load i32, i32* %4, align 4
  %27 = load i32, i32* %7, align 4
  %28 = icmp slt i32 %26, %27
  br i1 %28, label %29, label %59

29:                                               ; preds = %25
  %30 = load i32, i32* %4, align 4
  %31 = sext i32 %30 to i64
  %32 = getelementptr inbounds [40000 x i8], [40000 x i8]* %10, i64 0, i64 %31
  %33 = load i8, i8* %32, align 1
  %34 = sext i8 %33 to i32
  %35 = icmp sge i32 %34, 65
  br i1 %35, label %36, label %55

36:                                               ; preds = %29
  %37 = load i32, i32* %4, align 4
  %38 = sext i32 %37 to i64
  %39 = getelementptr inbounds [40000 x i8], [40000 x i8]* %10, i64 0, i64 %38
  %40 = load i8, i8* %39, align 1
  %41 = sext i8 %40 to i32
  %42 = icmp sle i32 %41, 90
  br i1 %42, label %43, label %55

43:                                               ; preds = %36
  %44 = load i32, i32* %4, align 4
  %45 = sext i32 %44 to i64
  %46 = getelementptr inbounds [40000 x i8], [40000 x i8]* %10, i64 0, i64 %45
  %47 = load i8, i8* %46, align 1
  %48 = sext i8 %47 to i32
  %49 = sub nsw i32 %48, 65
  %50 = add nsw i32 %49, 97
  %51 = trunc i32 %50 to i8
  %52 = load i32, i32* %4, align 4
  %53 = sext i32 %52 to i64
  %54 = getelementptr inbounds [40000 x i8], [40000 x i8]* %10, i64 0, i64 %53
  store i8 %51, i8* %54, align 1
  br label %55

55:                                               ; preds = %43, %36, %29
  br label %56

56:                                               ; preds = %55
  %57 = load i32, i32* %4, align 4
  %58 = add nsw i32 %57, 1
  store i32 %58, i32* %4, align 4
  br label %25

59:                                               ; preds = %25
  store i32 0, i32* %8, align 4
  store i32 0, i32* %5, align 4
  br label %60

60:                                               ; preds = %92, %59
  %61 = load i32, i32* %5, align 4
  %62 = load i32, i32* %7, align 4
  %63 = icmp slt i32 %61, %62
  br i1 %63, label %64, label %95

64:                                               ; preds = %60
  %65 = load i32, i32* %5, align 4
  %66 = sext i32 %65 to i64
  %67 = getelementptr inbounds [40000 x i8], [40000 x i8]* %10, i64 0, i64 %66
  %68 = load i8, i8* %67, align 1
  %69 = sext i8 %68 to i32
  %70 = icmp sge i32 %69, 97
  br i1 %70, label %71, label %79

71:                                               ; preds = %64
  %72 = load i32, i32* %5, align 4
  %73 = sext i32 %72 to i64
  %74 = getelementptr inbounds [40000 x i8], [40000 x i8]* %10, i64 0, i64 %73
  %75 = load i8, i8* %74, align 1
  %76 = sext i8 %75 to i32
  %77 = sub nsw i32 %76, 97
  %78 = add nsw i32 %77, 10
  store i32 %78, i32* %6, align 4
  br label %86

79:                                               ; preds = %64
  %80 = load i32, i32* %5, align 4
  %81 = sext i32 %80 to i64
  %82 = getelementptr inbounds [40000 x i8], [40000 x i8]* %10, i64 0, i64 %81
  %83 = load i8, i8* %82, align 1
  %84 = sext i8 %83 to i32
  %85 = sub nsw i32 %84, 48
  store i32 %85, i32* %6, align 4
  br label %86

86:                                               ; preds = %79, %71
  %87 = load i32, i32* %6, align 4
  %88 = load i32, i32* %8, align 4
  %89 = load i32, i32* %2, align 4
  %90 = mul nsw i32 %88, %89
  %91 = add nsw i32 %87, %90
  store i32 %91, i32* %8, align 4
  br label %92

92:                                               ; preds = %86
  %93 = load i32, i32* %5, align 4
  %94 = add nsw i32 %93, 1
  store i32 %94, i32* %5, align 4
  br label %60

95:                                               ; preds = %60
  store i32 0, i32* %5, align 4
  br label %96

96:                                               ; preds = %109, %95
  %97 = load i32, i32* %8, align 4
  %98 = icmp ne i32 %97, 0
  br i1 %98, label %99, label %112

99:                                               ; preds = %96
  %100 = load i32, i32* %8, align 4
  %101 = load i32, i32* %3, align 4
  %102 = srem i32 %100, %101
  %103 = load i32, i32* %5, align 4
  %104 = sext i32 %103 to i64
  %105 = getelementptr inbounds [40000 x i32], [40000 x i32]* %11, i64 0, i64 %104
  store i32 %102, i32* %105, align 4
  %106 = load i32, i32* %8, align 4
  %107 = load i32, i32* %3, align 4
  %108 = sdiv i32 %106, %107
  store i32 %108, i32* %8, align 4
  br label %109

109:                                              ; preds = %99
  %110 = load i32, i32* %5, align 4
  %111 = add nsw i32 %110, 1
  store i32 %111, i32* %5, align 4
  br label %96

112:                                              ; preds = %96
  store i32 0, i32* %9, align 4
  br label %113

113:                                              ; preds = %151, %112
  %114 = load i32, i32* %9, align 4
  %115 = load i32, i32* %5, align 4
  %116 = icmp slt i32 %114, %115
  br i1 %116, label %117, label %154

117:                                              ; preds = %113
  %118 = load i32, i32* %9, align 4
  %119 = sext i32 %118 to i64
  %120 = getelementptr inbounds [40000 x i32], [40000 x i32]* %11, i64 0, i64 %119
  %121 = load i32, i32* %120, align 4
  %122 = icmp slt i32 %121, 10
  br i1 %122, label %123, label %136

123:                                              ; preds = %117
  %124 = load i32, i32* %9, align 4
  %125 = sext i32 %124 to i64
  %126 = getelementptr inbounds [40000 x i32], [40000 x i32]* %11, i64 0, i64 %125
  %127 = load i32, i32* %126, align 4
  %128 = add nsw i32 %127, 48
  %129 = trunc i32 %128 to i8
  %130 = load i32, i32* %5, align 4
  %131 = load i32, i32* %9, align 4
  %132 = sub nsw i32 %130, %131
  %133 = sub nsw i32 %132, 1
  %134 = sext i32 %133 to i64
  %135 = getelementptr inbounds [40000 x i8], [40000 x i8]* %12, i64 0, i64 %134
  store i8 %129, i8* %135, align 1
  br label %150

136:                                              ; preds = %117
  %137 = load i32, i32* %9, align 4
  %138 = sext i32 %137 to i64
  %139 = getelementptr inbounds [40000 x i32], [40000 x i32]* %11, i64 0, i64 %138
  %140 = load i32, i32* %139, align 4
  %141 = add nsw i32 %140, 65
  %142 = sub nsw i32 %141, 10
  %143 = trunc i32 %142 to i8
  %144 = load i32, i32* %5, align 4
  %145 = load i32, i32* %9, align 4
  %146 = sub nsw i32 %144, %145
  %147 = sub nsw i32 %146, 1
  %148 = sext i32 %147 to i64
  %149 = getelementptr inbounds [40000 x i8], [40000 x i8]* %12, i64 0, i64 %148
  store i8 %143, i8* %149, align 1
  br label %150

150:                                              ; preds = %136, %123
  br label %151

151:                                              ; preds = %150
  %152 = load i32, i32* %9, align 4
  %153 = add nsw i32 %152, 1
  store i32 %153, i32* %9, align 4
  br label %113

154:                                              ; preds = %113
  %155 = load i32, i32* %5, align 4
  %156 = sext i32 %155 to i64
  %157 = getelementptr inbounds [40000 x i8], [40000 x i8]* %12, i64 0, i64 %156
  store i8 0, i8* %157, align 1
  %158 = getelementptr inbounds [40000 x i8], [40000 x i8]* %12, i64 0, i64 0
  %159 = call i32 (i8*, ...) @printf(i8* getelementptr inbounds ([3 x i8], [3 x i8]* @.str.2, i64 0, i64 0), i8* %158)
  br label %160

160:                                              ; preds = %154, %22
  %161 = call i32 @getchar()
  %162 = call i32 @getchar()
  %163 = load i32, i32* %1, align 4
  ret i32 %163
}

declare dso_local i32 @__isoc99_scanf(i8*, ...) #1

; Function Attrs: nounwind readonly
declare dso_local i64 @strlen(i8*) #2

declare dso_local i32 @printf(i8*, ...) #1

declare dso_local i32 @getchar() #1


!llvm.module.flags = !{!0}
!llvm.ident = !{!1}

!0 = !{i32 1, !"wchar_size", i32 4}
!1 = !{!"clang version 10.0.0-4ubuntu1 "}
